target datalayout = "e-m:e-p270:32:32-p271:32:32-p272:64:64-i64:64-i128:128-f80:128-n8:16:32:64-S128"
target triple = "x86_64-pc-linux-gnu"

%"class.llvm::PatchPointOpers" = type <{ ptr, i8, [7 x i8] }>
%"class.llvm::MachineInstr" = type <{ %"class.llvm::ilist_node_with_parent", ptr, ptr, ptr, [3 x i8], %"class.llvm::ArrayRecycler<llvm::MachineOperand>::Capacity", i32, %"class.llvm::PointerSumType", %"class.llvm::DebugLoc", i32, i16, [2 x i8] }>
%"class.llvm::ilist_node_with_parent" = type { %"class.llvm::ilist_node" }
%"class.llvm::ilist_node" = type { %"class.llvm::ilist_node_impl" }
%"class.llvm::ilist_node_impl" = type { %"class.llvm::ilist_node_base" }
%"class.llvm::ilist_node_base" = type { %"class.llvm::ilist_detail::node_base_prevnext" }
%"class.llvm::ilist_detail::node_base_prevnext" = type { %"class.llvm::PointerIntPair", ptr }
%"class.llvm::PointerIntPair" = type { %"struct.llvm::detail::PunnedPointer" }
%"struct.llvm::detail::PunnedPointer" = type { [8 x i8] }
%"class.llvm::ArrayRecycler<llvm::MachineOperand>::Capacity" = type { i8 }
%"class.llvm::PointerSumType" = type { %"union.llvm::PointerSumType<llvm::MachineInstr::ExtraInfoInlineKinds, llvm::PointerSumTypeMember<0, llvm::MachineMemOperand *>, llvm::PointerSumTypeMember<1, llvm::MCSymbol *>, llvm::PointerSumTypeMember<2, llvm::MCSymbol *>, llvm::PointerSumTypeMember<3, llvm::MachineInstr::ExtraInfo *>>::StorageT" }
%"union.llvm::PointerSumType<llvm::MachineInstr::ExtraInfoInlineKinds, llvm::PointerSumTypeMember<0, llvm::MachineMemOperand *>, llvm::PointerSumTypeMember<1, llvm::MCSymbol *>, llvm::PointerSumTypeMember<2, llvm::MCSymbol *>, llvm::PointerSumTypeMember<3, llvm::MachineInstr::ExtraInfo *>>::StorageT" = type { i64 }
%"class.llvm::DebugLoc" = type { %"class.llvm::TypedTrackingMDRef" }
%"class.llvm::TypedTrackingMDRef" = type { %"class.llvm::TrackingMDRef" }
%"class.llvm::TrackingMDRef" = type { ptr }
%"class.llvm::MachineOperand" = type { i32, %union.anon, ptr, %"union.llvm::MachineOperand::ContentsUnion" }
%union.anon = type { i32 }
%"union.llvm::MachineOperand::ContentsUnion" = type { %"class.llvm::ArrayRef" }
%"class.llvm::ArrayRef" = type { ptr, i64 }

; Function Attrs: mustprogress nounwind uwtable
define linkonce_odr hidden noundef zeroext i1 @_ZNK4llvm14MachineOperand10isImplicitEv(ptr noundef nonnull align 8 dereferenceable(32) %0) #1 comdat align 2 {
  %2 = alloca ptr, align 8
  store ptr %0, ptr %2, align 8
  %3 = load ptr, ptr %2, align 8
  %4 = load i32, ptr %3, align 8
  %5 = lshr i32 %4, 25
  %6 = and i32 %5, 1
  %7 = icmp ne i32 %6, 0
  ret i1 %7
}

; Function Attrs: mustprogress nounwind uwtable
define linkonce_odr hidden noundef zeroext i1 @_ZNK4llvm14MachineOperand5isDefEv(ptr noundef nonnull align 8 dereferenceable(32) %0) #1 comdat align 2 {
  %2 = alloca ptr, align 8
  store ptr %0, ptr %2, align 8
  %3 = load ptr, ptr %2, align 8
  %4 = load i32, ptr %3, align 8
  %5 = lshr i32 %4, 24
  %6 = and i32 %5, 1
  %7 = icmp ne i32 %6, 0
  ret i1 %7
}

; Function Attrs: mustprogress nounwind uwtable
define linkonce_odr hidden noundef zeroext i1 @_ZNK4llvm14MachineOperand5isRegEv(ptr noundef nonnull align 8 dereferenceable(32) %0) #1 comdat align 2 {
  %2 = alloca ptr, align 8
  store ptr %0, ptr %2, align 8
  %3 = load ptr, ptr %2, align 8
  %4 = load i32, ptr %3, align 8
  %5 = and i32 %4, 255
  %6 = icmp eq i32 %5, 0
  ret i1 %6
}

; Function Attrs: mustprogress nounwind uwtable
define linkonce_odr hidden noundef nonnull align 8 dereferenceable(32) ptr @_ZNK4llvm12MachineInstr10getOperandEj(ptr noundef nonnull align 8 dereferenceable(70) %0, i32 noundef %1) #1 comdat align 2 {
  %3 = alloca ptr, align 8
  %4 = alloca i32, align 4
  store ptr %0, ptr %3, align 8
  store i32 %1, ptr %4, align 4
  %5 = load ptr, ptr %3, align 8
  %6 = getelementptr inbounds nuw %"class.llvm::MachineInstr", ptr %5, i32 0, i32 3
  %7 = load ptr, ptr %6, align 8
  %8 = load i32, ptr %4, align 4
  %9 = zext i32 %8 to i64
  %10 = getelementptr inbounds %"class.llvm::MachineOperand", ptr %7, i64 %9
  ret ptr %10
}

; Function Attrs: mustprogress nounwind uwtable
define dso_local void @_ZN4llvm15PatchPointOpersC2EPKNS_12MachineInstrE(ptr noundef nonnull align 8 dereferenceable(9) %0, ptr noundef %1) unnamed_addr #1 align 2 {
  %3 = alloca ptr, align 8
  %4 = alloca ptr, align 8
  store ptr %0, ptr %3, align 8
  store ptr %1, ptr %4, align 8
  %5 = load ptr, ptr %3, align 8
  %6 = getelementptr inbounds nuw %"class.llvm::PatchPointOpers", ptr %5, i32 0, i32 0
  %7 = load ptr, ptr %4, align 8
  store ptr %7, ptr %6, align 8
  %8 = getelementptr inbounds nuw %"class.llvm::PatchPointOpers", ptr %5, i32 0, i32 1
  %9 = load ptr, ptr %4, align 8
  %10 = call noundef nonnull align 8 dereferenceable(32) ptr @_ZNK4llvm12MachineInstr10getOperandEj(ptr noundef nonnull align 8 dereferenceable(70) %9, i32 noundef 0)
  %11 = call noundef zeroext i1 @_ZNK4llvm14MachineOperand5isRegEv(ptr noundef nonnull align 8 dereferenceable(32) %10)
  br i1 %11, label %12, label %21

12:                                               ; preds = %2
  %13 = load ptr, ptr %4, align 8
  %14 = call noundef nonnull align 8 dereferenceable(32) ptr @_ZNK4llvm12MachineInstr10getOperandEj(ptr noundef nonnull align 8 dereferenceable(70) %13, i32 noundef 0)
  %15 = call noundef zeroext i1 @_ZNK4llvm14MachineOperand5isDefEv(ptr noundef nonnull align 8 dereferenceable(32) %14)
  br i1 %15, label %16, label %21

16:                                               ; preds = %12
  %17 = load ptr, ptr %4, align 8
  %18 = call noundef nonnull align 8 dereferenceable(32) ptr @_ZNK4llvm12MachineInstr10getOperandEj(ptr noundef nonnull align 8 dereferenceable(70) %17, i32 noundef 0)
  %19 = call noundef zeroext i1 @_ZNK4llvm14MachineOperand10isImplicitEv(ptr noundef nonnull align 8 dereferenceable(32) %18)
  %20 = xor i1 %19, true
  br label %21

21:                                               ; preds = %16, %12, %2
  %22 = phi i1 [ false, %12 ], [ false, %2 ], [ %20, %16 ]
  %23 = zext i1 %22 to i8
  store i8 %23, ptr %8, align 8
  ret void
}