; Function Attrs: mustprogress nofree norecurse nosync nounwind willreturn memory(read, argmem: readwrite, inaccessiblemem: none) uwtable
define dso_local void @_ZN4llvm15PatchPointOpersC2EPKNS_12MachineInstrE(ptr nocapture noundef nonnull writeonly align 8 dereferenceable(9) %0, ptr noundef %1) unnamed_addr #3 align 2 {
  store ptr %1, ptr %0, align 8
  %3 = getelementptr inbounds nuw i8, ptr %1, i64 32
  %4 = load ptr, ptr %3, align 8
  %5 = load i32, ptr %4, align 8
  %6 = and i32 %5, 50331903
  %narrow = icmp eq i32 %6, 16777216
  %7 = zext i1 %narrow to i8
  %8 = getelementptr inbounds nuw i8, ptr %0, i64 8
  store i8 %7, ptr %8, align 8
  ret void
}